target datalayout = "e-m:e-p270:32:32-p271:32:32-p272:64:64-i64:64-i128:128-f80:128-n8:16:32:64-S128"
target triple = "x86_64-pc-linux-gnu"

%struct.AVFilterContext = type { ptr, ptr, ptr, ptr, ptr, i32, ptr, ptr, i32, ptr, ptr, i32, i32, ptr, ptr, ptr, ptr, i32, ptr, i32, i32 }
%struct.SetPTSContext = type { ptr, ptr, ptr, i32, [21 x double], i32 }
%struct.AVFilterLink = type { ptr, ptr, ptr, ptr, i32, i32, i32, i32, %struct.AVRational, i32, i32, i32, %struct.AVChannelLayout, %struct.AVRational, ptr, i32, %struct.AVFilterFormatsConfig, %struct.AVFilterFormatsConfig }
%struct.AVChannelLayout = type { i32, i32, %union.anon.1, ptr }
%union.anon.1 = type { i64 }
%struct.AVRational = type { i32, i32 }
%struct.AVFilterFormatsConfig = type { ptr, ptr, ptr, ptr, ptr }
%struct.FilterLink = type { %struct.AVFilterLink, ptr, i64, i64, i32, i32, i64, i64, i64, i64, %struct.AVRational, ptr }

@.str.5 = private unnamed_addr constant [36 x i8] c"TB:%f FRAME_RATE:%f SAMPLE_RATE:%f\0A\00", align 1

; Function Attrs: inlinehint nounwind uwtable
define internal double @av_q2d(i64 %0) #3 {
  %2 = alloca %struct.AVRational, align 4
  store i64 %0, ptr %2, align 4
  %3 = getelementptr inbounds nuw %struct.AVRational, ptr %2, i32 0, i32 0
  %4 = load i32, ptr %3, align 4, !tbaa !58
  %5 = sitofp i32 %4 to double
  %6 = getelementptr inbounds nuw %struct.AVRational, ptr %2, i32 0, i32 1
  %7 = load i32, ptr %6, align 4, !tbaa !59
  %8 = sitofp i32 %7 to double
  %9 = fdiv nsz double %5, %8
  ret double %9
}

; Function Attrs: inlinehint nounwind uwtable
define internal ptr @ff_filter_link(ptr noundef %0) #3 {
  %2 = alloca ptr, align 8
  store ptr %0, ptr %2, align 8, !tbaa !34
  %3 = load ptr, ptr %2, align 8, !tbaa !34
  ret ptr %3
}

; Function Attrs: nounwind uwtable
define internal i32 @config_input(ptr noundef %0) #1 {
  %2 = alloca ptr, align 8
  %3 = alloca ptr, align 8
  %4 = alloca ptr, align 8
  %5 = alloca ptr, align 8
  store ptr %0, ptr %2, align 8, !tbaa !34
  call void @llvm.lifetime.start.p0(i64 8, ptr %3) #10
  %6 = load ptr, ptr %2, align 8, !tbaa !34
  %7 = call ptr @ff_filter_link(ptr noundef %6)
  store ptr %7, ptr %3, align 8, !tbaa !41
  call void @llvm.lifetime.start.p0(i64 8, ptr %4) #10
  %8 = load ptr, ptr %2, align 8, !tbaa !34
  %9 = getelementptr inbounds nuw %struct.AVFilterLink, ptr %8, i32 0, i32 2
  %10 = load ptr, ptr %9, align 8, !tbaa !43
  store ptr %10, ptr %4, align 8, !tbaa !4
  call void @llvm.lifetime.start.p0(i64 8, ptr %5) #10
  %11 = load ptr, ptr %4, align 8, !tbaa !4
  %12 = getelementptr inbounds nuw %struct.AVFilterContext, ptr %11, i32 0, i32 9
  %13 = load ptr, ptr %12, align 8, !tbaa !9
  store ptr %13, ptr %5, align 8, !tbaa !22
  %14 = load ptr, ptr %2, align 8, !tbaa !34
  %15 = getelementptr inbounds nuw %struct.AVFilterLink, ptr %14, i32 0, i32 4
  %16 = load i32, ptr %15, align 8, !tbaa !51
  %17 = load ptr, ptr %5, align 8, !tbaa !22
  %18 = getelementptr inbounds nuw %struct.SetPTSContext, ptr %17, i32 0, i32 5
  store i32 %16, ptr %18, align 8, !tbaa !52
  %19 = load ptr, ptr %2, align 8, !tbaa !34
  %20 = getelementptr inbounds nuw %struct.AVFilterLink, ptr %19, i32 0, i32 13
  %21 = load i64, ptr %20, align 8
  %22 = call nsz double @av_q2d(i64 %21)
  %23 = load ptr, ptr %5, align 8, !tbaa !22
  %24 = getelementptr inbounds nuw %struct.SetPTSContext, ptr %23, i32 0, i32 4
  %25 = getelementptr inbounds [21 x double], ptr %24, i64 0, i64 14
  store double %22, ptr %25, align 8, !tbaa !28
  %26 = call i64 @av_gettime()
  %27 = sitofp i64 %26 to double
  %28 = load ptr, ptr %5, align 8, !tbaa !22
  %29 = getelementptr inbounds nuw %struct.SetPTSContext, ptr %28, i32 0, i32 4
  %30 = getelementptr inbounds [21 x double], ptr %29, i64 0, i64 16
  store double %27, ptr %30, align 8, !tbaa !28
  %31 = load ptr, ptr %5, align 8, !tbaa !22
  %32 = getelementptr inbounds nuw %struct.SetPTSContext, ptr %31, i32 0, i32 5
  %33 = load i32, ptr %32, align 8, !tbaa !52
  %34 = icmp eq i32 %33, 1
  br i1 %34, label %35, label %40

35:                                               ; preds = %1
  %36 = load ptr, ptr %2, align 8, !tbaa !34
  %37 = getelementptr inbounds nuw %struct.AVFilterLink, ptr %36, i32 0, i32 11
  %38 = load i32, ptr %37, align 8, !tbaa !53
  %39 = sitofp i32 %38 to float
  br label %41

40:                                               ; preds = %1
  br label %41

41:                                               ; preds = %40, %35
  %42 = phi nsz float [ %39, %35 ], [ 0x7FF8000000000000, %40 ]
  %43 = fpext nsz float %42 to double
  %44 = load ptr, ptr %5, align 8, !tbaa !22
  %45 = getelementptr inbounds nuw %struct.SetPTSContext, ptr %44, i32 0, i32 4
  %46 = getelementptr inbounds [21 x double], ptr %45, i64 0, i64 10
  store double %43, ptr %46, align 8, !tbaa !28
  %47 = load ptr, ptr %5, align 8, !tbaa !22
  %48 = getelementptr inbounds nuw %struct.SetPTSContext, ptr %47, i32 0, i32 4
  %49 = getelementptr inbounds [21 x double], ptr %48, i64 0, i64 18
  store double %43, ptr %49, align 8, !tbaa !28
  %50 = load ptr, ptr %3, align 8, !tbaa !41
  %51 = getelementptr inbounds nuw %struct.FilterLink, ptr %50, i32 0, i32 10
  %52 = getelementptr inbounds nuw %struct.AVRational, ptr %51, i32 0, i32 0
  %53 = load i32, ptr %52, align 8, !tbaa !54
  %54 = icmp ne i32 %53, 0
  br i1 %54, label %55, label %66

55:                                               ; preds = %41
  %56 = load ptr, ptr %3, align 8, !tbaa !41
  %57 = getelementptr inbounds nuw %struct.FilterLink, ptr %56, i32 0, i32 10
  %58 = getelementptr inbounds nuw %struct.AVRational, ptr %57, i32 0, i32 1
  %59 = load i32, ptr %58, align 4, !tbaa !56
  %60 = icmp ne i32 %59, 0
  br i1 %60, label %61, label %66

61:                                               ; preds = %55
  %62 = load ptr, ptr %3, align 8, !tbaa !41
  %63 = getelementptr inbounds nuw %struct.FilterLink, ptr %62, i32 0, i32 10
  %64 = load i64, ptr %63, align 8
  %65 = call nsz double @av_q2d(i64 %64)
  br label %67

66:                                               ; preds = %55, %41
  br label %67

67:                                               ; preds = %66, %61
  %68 = phi nsz double [ %65, %61 ], [ 0x7FF8000000000000, %66 ]
  %69 = load ptr, ptr %5, align 8, !tbaa !22
  %70 = getelementptr inbounds nuw %struct.SetPTSContext, ptr %69, i32 0, i32 4
  %71 = getelementptr inbounds [21 x double], ptr %70, i64 0, i64 19
  store double %68, ptr %71, align 8, !tbaa !28
  %72 = load ptr, ptr %5, align 8, !tbaa !22
  %73 = getelementptr inbounds nuw %struct.SetPTSContext, ptr %72, i32 0, i32 4
  %74 = getelementptr inbounds [21 x double], ptr %73, i64 0, i64 0
  store double %68, ptr %74, align 8, !tbaa !28
  %75 = load ptr, ptr %2, align 8, !tbaa !34
  %76 = getelementptr inbounds nuw %struct.AVFilterLink, ptr %75, i32 0, i32 0
  %77 = load ptr, ptr %76, align 8, !tbaa !57
  %78 = load ptr, ptr %5, align 8, !tbaa !22
  %79 = getelementptr inbounds nuw %struct.SetPTSContext, ptr %78, i32 0, i32 4
  %80 = getelementptr inbounds [21 x double], ptr %79, i64 0, i64 14
  %81 = load double, ptr %80, align 8, !tbaa !28
  %82 = load ptr, ptr %5, align 8, !tbaa !22
  %83 = getelementptr inbounds nuw %struct.SetPTSContext, ptr %82, i32 0, i32 4
  %84 = getelementptr inbounds [21 x double], ptr %83, i64 0, i64 0
  %85 = load double, ptr %84, align 8, !tbaa !28
  %86 = load ptr, ptr %5, align 8, !tbaa !22
  %87 = getelementptr inbounds nuw %struct.SetPTSContext, ptr %86, i32 0, i32 4
  %88 = getelementptr inbounds [21 x double], ptr %87, i64 0, i64 10
  %89 = load double, ptr %88, align 8, !tbaa !28
  call void (ptr, i32, ptr, ...) @av_log(ptr noundef %77, i32 noundef 40, ptr noundef @.str.5, double noundef %81, double noundef %85, double noundef %89)
  call void @llvm.lifetime.end.p0(i64 8, ptr %5) #10
  call void @llvm.lifetime.end.p0(i64 8, ptr %4) #10
  call void @llvm.lifetime.end.p0(i64 8, ptr %3) #10
  ret i32 0
}