; Function Attrs: nounwind uwtable
define internal noundef i32 @config_input(ptr noundef readonly captures(none) %0) #1 {
  %2 = getelementptr inbounds nuw i8, ptr %0, i64 16
  %3 = load ptr, ptr %2, align 8, !tbaa !33
  %4 = getelementptr inbounds nuw i8, ptr %3, i64 72
  %5 = load ptr, ptr %4, align 8, !tbaa !4
  %6 = getelementptr inbounds nuw i8, ptr %0, i64 32
  %7 = load i32, ptr %6, align 8, !tbaa !48
  %8 = getelementptr inbounds nuw i8, ptr %5, i64 200
  store i32 %7, ptr %8, align 8, !tbaa !52
  %9 = getelementptr inbounds nuw i8, ptr %0, i64 96
  %10 = load i64, ptr %9, align 8
  %.sroa.0.0.extract.trunc.i = trunc i64 %10 to i32
  %.sroa.2.0.extract.shift.i = lshr i64 %10, 32
  %.sroa.2.0.extract.trunc.i = trunc nuw i64 %.sroa.2.0.extract.shift.i to i32
  %11 = sitofp i32 %.sroa.0.0.extract.trunc.i to double
  %12 = sitofp i32 %.sroa.2.0.extract.trunc.i to double
  %13 = fdiv nsz double %11, %12
  %14 = getelementptr inbounds nuw i8, ptr %5, i64 144
  store double %13, ptr %14, align 8, !tbaa !23
  %15 = tail call i64 @av_gettime() #8
  %16 = sitofp i64 %15 to double
  %17 = getelementptr inbounds nuw i8, ptr %5, i64 160
  store double %16, ptr %17, align 8, !tbaa !23
  %18 = load i32, ptr %8, align 8, !tbaa !52
  %19 = icmp eq i32 %18, 1
  br i1 %19, label %20, label %25

20:                                               ; preds = %1
  %21 = getelementptr inbounds nuw i8, ptr %0, i64 64
  %22 = load i32, ptr %21, align 8, !tbaa !55
  %23 = sitofp i32 %22 to float
  %24 = fpext nsz float %23 to double
  br label %25

25:                                               ; preds = %1, %20
  %26 = phi double [ %24, %20 ], [ 0x7FF8000000000000, %1 ]
  %27 = getelementptr inbounds nuw i8, ptr %5, i64 112
  store double %26, ptr %27, align 8, !tbaa !23
  %28 = getelementptr inbounds nuw i8, ptr %5, i64 176
  store double %26, ptr %28, align 8, !tbaa !23
  %29 = getelementptr inbounds nuw i8, ptr %0, i64 264
  %30 = load i32, ptr %29, align 8, !tbaa !56
  %.not = icmp eq i32 %30, 0
  br i1 %.not, label %39, label %31

31:                                               ; preds = %25
  %32 = getelementptr inbounds nuw i8, ptr %0, i64 268
  %33 = load i32, ptr %32, align 4, !tbaa !58
  %.not21 = icmp eq i32 %33, 0
  br i1 %.not21, label %39, label %34

34:                                               ; preds = %31
  %35 = load i64, ptr %29, align 8
  %.sroa.0.0.extract.trunc.i22 = trunc i64 %35 to i32
  %.sroa.2.0.extract.shift.i23 = lshr i64 %35, 32
  %.sroa.2.0.extract.trunc.i24 = trunc nuw i64 %.sroa.2.0.extract.shift.i23 to i32
  %36 = sitofp i32 %.sroa.0.0.extract.trunc.i22 to double
  %37 = sitofp i32 %.sroa.2.0.extract.trunc.i24 to double
  %38 = fdiv nsz double %36, %37
  br label %39

39:                                               ; preds = %25, %31, %34
  %40 = phi nsz double [ %38, %34 ], [ 0x7FF8000000000000, %31 ], [ 0x7FF8000000000000, %25 ]
  %41 = getelementptr inbounds nuw i8, ptr %5, i64 32
  %42 = getelementptr inbounds nuw i8, ptr %5, i64 184
  store double %40, ptr %42, align 8, !tbaa !23
  store double %40, ptr %41, align 8, !tbaa !23
  %43 = load ptr, ptr %0, align 8, !tbaa !59
  %44 = load double, ptr %14, align 8, !tbaa !23
  tail call void (ptr, i32, ptr, ...) @av_log(ptr noundef %43, i32 noundef 40, ptr noundef nonnull @.str.5, double noundef %44, double noundef %40, double noundef %26) #8
  ret i32 0
}